; Function Attrs: nounwind uwtable
define internal fastcc void @VULKAN_CreateVertexBuffer(ptr noundef %0, i64 noundef range(i64 -2147483648, 2147483648) %1, i64 noundef range(i64 1, 0) %2) unnamed_addr #0 {
  %4 = getelementptr inbounds nuw i8, ptr %0, i64 1880
  %5 = getelementptr inbounds nuw [256 x %struct.VULKAN_Buffer], ptr %4, i64 0, i64 %1
  %6 = getelementptr inbounds nuw i8, ptr %5, i64 8
  %7 = load ptr, ptr %6, align 8
  %.not.i = icmp eq ptr %7, null
  br i1 %.not.i, label %12, label %8

8:                                                ; preds = %3
  %9 = load ptr, ptr @vkDestroyBuffer, align 8
  %10 = getelementptr inbounds nuw i8, ptr %0, i64 1632
  %11 = load ptr, ptr %10, align 8
  tail call void %9(ptr noundef %11, ptr noundef nonnull %7, ptr noundef null) #8
  store ptr null, ptr %6, align 8
  br label %12

12:                                               ; preds = %8, %3
  %13 = load ptr, ptr %5, align 8
  %.not10.i = icmp eq ptr %13, null
  br i1 %.not10.i, label %VULKAN_DestroyBuffer.exit, label %14

14:                                               ; preds = %12
  %15 = load ptr, ptr @vkFreeMemory, align 8
  %16 = getelementptr inbounds nuw i8, ptr %0, i64 1632
  %17 = load ptr, ptr %16, align 8
  tail call void %15(ptr noundef %17, ptr noundef nonnull %13, ptr noundef null) #8
  br label %VULKAN_DestroyBuffer.exit

VULKAN_DestroyBuffer.exit:                        ; preds = %12, %14
  tail call void @llvm.memset.p0.i64(ptr noundef nonnull align 8 dereferenceable(32) %5, i8 0, i64 32, i1 false)
  %18 = tail call fastcc i32 @VULKAN_AllocateBuffer(ptr noundef nonnull %0, i64 noundef %2, i32 noundef 128, ptr noundef nonnull %5)
  ret void
}